target datalayout = "e-m:e-p270:32:32-p271:32:32-p272:64:64-i64:64-i128:128-f80:128-n8:16:32:64-S128"
target triple = "x86_64-pc-linux-gnu"

@hf_swils_fspfh_rev = internal global i32 0, align 4
@hf_swils_fspfh_ar_num = internal global i32 0, align 4
@hf_swils_fspfh_auth_type = internal global i32 0, align 4
@hf_swils_fspfh_dom_id = internal global i32 0, align 4
@hf_swils_fspfh_auth = internal global i32 0, align 4
@hf_swils_lsack_flags = internal global i32 0, align 4
@hf_swils_lsack_num_of_lsr_headers = internal global i32 0, align 4
@ett_fcswils_fspfhdr = internal global i32 0, align 4
@ett_fcswils_lsrechdr = internal global i32 0, align 4
@.str.412 = private unnamed_addr constant [12 x i8] c"FSPF Header\00", align 1
@.str.416 = private unnamed_addr constant [37 x i8] c"Link State Record Header (Domain %d)\00", align 1

; Function Attrs: nounwind uwtable
define internal void @dissect_swils_fspf_hdr(ptr noundef %0, ptr noundef %1, i32 noundef %2) #0 {
  %4 = alloca ptr, align 8
  %5 = alloca ptr, align 8
  %6 = alloca i32, align 4
  %7 = alloca ptr, align 8
  store ptr %0, ptr %4, align 8
  store ptr %1, ptr %5, align 8
  store i32 %2, ptr %6, align 4
  %8 = load ptr, ptr %5, align 8
  %9 = icmp ne ptr %8, null
  br i1 %9, label %10, label %46

10:                                               ; preds = %3
  %11 = load ptr, ptr %5, align 8
  %12 = load ptr, ptr %4, align 8
  %13 = load i32, ptr %6, align 4
  %14 = load i32, ptr @ett_fcswils_fspfhdr, align 4
  %15 = call ptr @proto_tree_add_subtree(ptr noundef %11, ptr noundef %12, i32 noundef %13, i32 noundef 20, i32 noundef %14, ptr noundef null, ptr noundef @.str.412)
  store ptr %15, ptr %7, align 8
  %16 = load ptr, ptr %7, align 8
  %17 = load i32, ptr @hf_swils_fspfh_rev, align 4
  %18 = load ptr, ptr %4, align 8
  %19 = load i32, ptr %6, align 4
  %20 = add i32 %19, 4
  %21 = call ptr @proto_tree_add_item(ptr noundef %16, i32 noundef %17, ptr noundef %18, i32 noundef %20, i32 noundef 1, i32 noundef 0)
  %22 = load ptr, ptr %7, align 8
  %23 = load i32, ptr @hf_swils_fspfh_ar_num, align 4
  %24 = load ptr, ptr %4, align 8
  %25 = load i32, ptr %6, align 4
  %26 = add i32 %25, 5
  %27 = call ptr @proto_tree_add_item(ptr noundef %22, i32 noundef %23, ptr noundef %24, i32 noundef %26, i32 noundef 1, i32 noundef 0)
  %28 = load ptr, ptr %7, align 8
  %29 = load i32, ptr @hf_swils_fspfh_auth_type, align 4
  %30 = load ptr, ptr %4, align 8
  %31 = load i32, ptr %6, align 4
  %32 = add i32 %31, 6
  %33 = call ptr @proto_tree_add_item(ptr noundef %28, i32 noundef %29, ptr noundef %30, i32 noundef %32, i32 noundef 1, i32 noundef 0)
  %34 = load ptr, ptr %7, align 8
  %35 = load i32, ptr @hf_swils_fspfh_dom_id, align 4
  %36 = load ptr, ptr %4, align 8
  %37 = load i32, ptr %6, align 4
  %38 = add i32 %37, 11
  %39 = call ptr @proto_tree_add_item(ptr noundef %34, i32 noundef %35, ptr noundef %36, i32 noundef %38, i32 noundef 1, i32 noundef 0)
  %40 = load ptr, ptr %7, align 8
  %41 = load i32, ptr @hf_swils_fspfh_auth, align 4
  %42 = load ptr, ptr %4, align 8
  %43 = load i32, ptr %6, align 4
  %44 = add i32 %43, 12
  %45 = call ptr @proto_tree_add_item(ptr noundef %40, i32 noundef %41, ptr noundef %42, i32 noundef %44, i32 noundef 8, i32 noundef 0)
  br label %46

46:                                               ; preds = %10, %3
  ret void
}

; Function Attrs: nounwind uwtable
define internal void @dissect_swils_lsack(ptr noundef %0, ptr noundef %1, ptr noundef %2, i8 noundef zeroext %3) #0 {
  %5 = alloca ptr, align 8
  %6 = alloca ptr, align 8
  %7 = alloca ptr, align 8
  %8 = alloca i8, align 1
  %9 = alloca i32, align 4
  %10 = alloca i32, align 4
  %11 = alloca i32, align 4
  %12 = alloca ptr, align 8
  store ptr %0, ptr %5, align 8
  store ptr %1, ptr %6, align 8
  store ptr %2, ptr %7, align 8
  store i8 %3, ptr %8, align 1
  store i32 0, ptr %9, align 4
  %13 = load ptr, ptr %7, align 8
  %14 = icmp ne ptr %13, null
  br i1 %14, label %15, label %59

15:                                               ; preds = %4
  %16 = load ptr, ptr %5, align 8
  %17 = load ptr, ptr %7, align 8
  %18 = load i32, ptr %9, align 4
  call void @dissect_swils_fspf_hdr(ptr noundef %16, ptr noundef %17, i32 noundef %18)
  %19 = load ptr, ptr %7, align 8
  %20 = load i32, ptr @hf_swils_lsack_flags, align 4
  %21 = load ptr, ptr %5, align 8
  %22 = load i32, ptr %9, align 4
  %23 = add i32 %22, 23
  %24 = call ptr @proto_tree_add_item(ptr noundef %19, i32 noundef %20, ptr noundef %21, i32 noundef %23, i32 noundef 1, i32 noundef 0)
  %25 = load ptr, ptr %5, align 8
  %26 = load i32, ptr %9, align 4
  %27 = add i32 %26, 24
  %28 = call i32 @tvb_get_ntohl(ptr noundef %25, i32 noundef %27)
  store i32 %28, ptr %10, align 4
  %29 = load ptr, ptr %7, align 8
  %30 = load i32, ptr @hf_swils_lsack_num_of_lsr_headers, align 4
  %31 = load ptr, ptr %5, align 8
  %32 = load i32, ptr %9, align 4
  %33 = add i32 %32, 24
  %34 = call ptr @proto_tree_add_item(ptr noundef %29, i32 noundef %30, ptr noundef %31, i32 noundef %33, i32 noundef 4, i32 noundef 0)
  store i32 28, ptr %9, align 4
  store i32 0, ptr %11, align 4
  br label %35

35:                                               ; preds = %55, %15
  %36 = load i32, ptr %11, align 4
  %37 = load i32, ptr %10, align 4
  %38 = icmp slt i32 %36, %37
  br i1 %38, label %39, label %58

39:                                               ; preds = %35
  %40 = load ptr, ptr %7, align 8
  %41 = load ptr, ptr %5, align 8
  %42 = load i32, ptr %9, align 4
  %43 = load i32, ptr @ett_fcswils_lsrechdr, align 4
  %44 = load ptr, ptr %5, align 8
  %45 = load i32, ptr %9, align 4
  %46 = add i32 %45, 15
  %47 = call zeroext i8 @tvb_get_guint8(ptr noundef %44, i32 noundef %46)
  %48 = zext i8 %47 to i32
  %49 = call ptr (ptr, ptr, i32, i32, i32, ptr, ptr, ...) @proto_tree_add_subtree_format(ptr noundef %40, ptr noundef %41, i32 noundef %42, i32 noundef 24, i32 noundef %43, ptr noundef null, ptr noundef @.str.416, i32 noundef %48)
  store ptr %49, ptr %12, align 8
  %50 = load ptr, ptr %5, align 8
  %51 = load ptr, ptr %12, align 8
  %52 = load i32, ptr %9, align 4
  call void @dissect_swils_fspf_lsrechdr(ptr noundef %50, ptr noundef %51, i32 noundef %52)
  %53 = load i32, ptr %9, align 4
  %54 = add i32 %53, 24
  store i32 %54, ptr %9, align 4
  br label %55

55:                                               ; preds = %39
  %56 = load i32, ptr %11, align 4
  %57 = add i32 %56, 1
  store i32 %57, ptr %11, align 4
  br label %35, !llvm.loop !7

58:                                               ; preds = %35
  br label %59

59:                                               ; preds = %58, %4
  ret void
}