; Function Attrs: nounwind uwtable
define internal void @dissect_swils_lsack(ptr noundef %0, ptr readnone captures(none) %1, ptr noundef %2, i8 zeroext %3) #0 {
  %.not = icmp eq ptr %2, null
  br i1 %.not, label %.loopexit, label %5

5:                                                ; preds = %4
  %6 = load i32, ptr @ett_fcswils_fspfhdr, align 4
  %7 = tail call ptr @proto_tree_add_subtree(ptr noundef nonnull %2, ptr noundef %0, i32 noundef 0, i32 noundef 20, i32 noundef %6, ptr noundef null, ptr noundef nonnull @.str.412) #7
  %8 = load i32, ptr @hf_swils_fspfh_rev, align 4
  %9 = tail call ptr @proto_tree_add_item(ptr noundef %7, i32 noundef %8, ptr noundef %0, i32 noundef 4, i32 noundef 1, i32 noundef 0) #7
  %10 = load i32, ptr @hf_swils_fspfh_ar_num, align 4
  %11 = tail call ptr @proto_tree_add_item(ptr noundef %7, i32 noundef %10, ptr noundef %0, i32 noundef 5, i32 noundef 1, i32 noundef 0) #7
  %12 = load i32, ptr @hf_swils_fspfh_auth_type, align 4
  %13 = tail call ptr @proto_tree_add_item(ptr noundef %7, i32 noundef %12, ptr noundef %0, i32 noundef 6, i32 noundef 1, i32 noundef 0) #7
  %14 = load i32, ptr @hf_swils_fspfh_dom_id, align 4
  %15 = tail call ptr @proto_tree_add_item(ptr noundef %7, i32 noundef %14, ptr noundef %0, i32 noundef 11, i32 noundef 1, i32 noundef 0) #7
  %16 = load i32, ptr @hf_swils_fspfh_auth, align 4
  %17 = tail call ptr @proto_tree_add_item(ptr noundef %7, i32 noundef %16, ptr noundef %0, i32 noundef 12, i32 noundef 8, i32 noundef 0) #7
  %18 = load i32, ptr @hf_swils_lsack_flags, align 4
  %19 = tail call ptr @proto_tree_add_item(ptr noundef nonnull %2, i32 noundef %18, ptr noundef %0, i32 noundef 23, i32 noundef 1, i32 noundef 0) #7
  %20 = tail call i32 @tvb_get_ntohl(ptr noundef %0, i32 noundef 24) #7
  %21 = load i32, ptr @hf_swils_lsack_num_of_lsr_headers, align 4
  %22 = tail call ptr @proto_tree_add_item(ptr noundef nonnull %2, i32 noundef %21, ptr noundef %0, i32 noundef 24, i32 noundef 4, i32 noundef 0) #7
  %23 = icmp sgt i32 %20, 0
  br i1 %23, label %.lr.ph, label %.loopexit

.lr.ph:                                           ; preds = %5, %.lr.ph
  %.026 = phi i32 [ %29, %.lr.ph ], [ 28, %5 ]
  %.02325 = phi i32 [ %30, %.lr.ph ], [ 0, %5 ]
  %24 = load i32, ptr @ett_fcswils_lsrechdr, align 4
  %25 = add i32 %.026, 15
  %26 = tail call zeroext i8 @tvb_get_guint8(ptr noundef %0, i32 noundef %25) #7
  %27 = zext i8 %26 to i32
  %28 = tail call ptr (ptr, ptr, i32, i32, i32, ptr, ptr, ...) @proto_tree_add_subtree_format(ptr noundef nonnull %2, ptr noundef %0, i32 noundef %.026, i32 noundef 24, i32 noundef %24, ptr noundef null, ptr noundef nonnull @.str.416, i32 noundef %27) #7
  tail call fastcc void @dissect_swils_fspf_lsrechdr(ptr noundef %0, ptr noundef %28, i32 noundef %.026)
  %29 = add i32 %.026, 24
  %30 = add nuw nsw i32 %.02325, 1
  %exitcond.not = icmp eq i32 %30, %20
  br i1 %exitcond.not, label %.loopexit, label %.lr.ph, !llvm.loop !9

.loopexit:                                        ; preds = %.lr.ph, %5, %4
  ret void
}